; Function Attrs: mustprogress uwtable
define void @_ZN7rocksdb13PosixMmapFile18UnmapCurrentRegionEv(ptr noalias nocapture writeonly sret(%"class.rocksdb::IOStatus") align 8 %agg.result, ptr noundef nonnull align 8 dereferenceable(138) %this) local_unnamed_addr #0 align 2 personality ptr @__gxx_personality_v0 {
entry:
  %ref.tmp = alloca %"class.std::__cxx11::basic_string", align 8
  %ref.tmp6 = alloca %"class.std::allocator", align 1
  %base_ = getelementptr inbounds i8, ptr %this, i64 96
  %0 = load ptr, ptr %base_, align 8
  %cmp.not = icmp eq ptr %0, null
  br i1 %cmp.not, label %if.end20, label %if.then

if.then:                                          ; preds = %entry
  %limit_ = getelementptr inbounds i8, ptr %this, i64 104
  %1 = load ptr, ptr %limit_, align 8
  %sub.ptr.lhs.cast = ptrtoint ptr %1 to i64
  %sub.ptr.rhs.cast = ptrtoint ptr %0 to i64
  %sub.ptr.sub = sub i64 %sub.ptr.lhs.cast, %sub.ptr.rhs.cast
  %call = tail call i32 @munmap(ptr noundef nonnull %0, i64 noundef %sub.ptr.sub) #25
  %cmp4.not = icmp eq i32 %call, 0
  br i1 %cmp4.not, label %if.end, label %if.then5

if.then5:                                         ; preds = %if.then
  call void @_ZNSaIcEC1Ev(ptr noundef nonnull align 1 dereferenceable(1) %ref.tmp6) #25
  %call.i4 = invoke noundef ptr @_ZNSt7__cxx1112basic_stringIcSt11char_traitsIcESaIcEE13_M_local_dataEv(ptr noundef nonnull align 8 dereferenceable(32) %ref.tmp)
          to label %call.i.noexc unwind label %lpad

call.i.noexc:                                     ; preds = %if.then5
  invoke void @_ZNSt7__cxx1112basic_stringIcSt11char_traitsIcESaIcEE12_Alloc_hiderC1EPcRKS3_(ptr noundef nonnull align 8 dereferenceable(8) %ref.tmp, ptr noundef %call.i4, ptr noundef nonnull align 1 dereferenceable(1) %ref.tmp6)
          to label %.noexc unwind label %lpad

.noexc:                                           ; preds = %call.i.noexc
  invoke void @_ZNSt7__cxx1112basic_stringIcSt11char_traitsIcESaIcEE12_M_constructIPKcEEvT_S8_St20forward_iterator_tag(ptr noundef nonnull align 8 dereferenceable(32) %ref.tmp, ptr noundef nonnull @.str.32, ptr noundef nonnull getelementptr inbounds ([13 x i8], ptr @.str.32, i64 0, i64 12))
          to label %invoke.cont unwind label %lpad.i

lpad.i:                                           ; preds = %.noexc
  %2 = landingpad { ptr, i32 }
          cleanup
  call void @_ZNSaIcED2Ev(ptr noundef nonnull align 1 dereferenceable(1) %ref.tmp) #25
  br label %ehcleanup

invoke.cont:                                      ; preds = %.noexc
  %filename_ = getelementptr inbounds i8, ptr %this, i64 40
  invoke void @_ZN7rocksdb7IOErrorERKNSt7__cxx1112basic_stringIcSt11char_traitsIcESaIcEEES7_i(ptr sret(%"class.rocksdb::IOStatus") align 8 %agg.result, ptr noundef nonnull align 8 dereferenceable(32) %ref.tmp, ptr noundef nonnull align 8 dereferenceable(32) %filename_, i32 noundef %call)
          to label %invoke.cont8 unwind label %lpad7

invoke.cont8:                                     ; preds = %invoke.cont
  call void @_ZNSt7__cxx1112basic_stringIcSt11char_traitsIcESaIcEED1Ev(ptr noundef nonnull align 8 dereferenceable(32) %ref.tmp) #25
  call void @_ZNSaIcED1Ev(ptr noundef nonnull align 1 dereferenceable(1) %ref.tmp6) #25
  br label %return

lpad:                                             ; preds = %call.i.noexc, %if.then5
  %3 = landingpad { ptr, i32 }
          cleanup
  br label %ehcleanup

lpad7:                                            ; preds = %invoke.cont
  %4 = landingpad { ptr, i32 }
          cleanup
  call void @_ZNSt7__cxx1112basic_stringIcSt11char_traitsIcESaIcEED1Ev(ptr noundef nonnull align 8 dereferenceable(32) %ref.tmp) #25
  br label %ehcleanup

ehcleanup:                                        ; preds = %lpad, %lpad.i, %lpad7
  %.pn = phi { ptr, i32 } [ %4, %lpad7 ], [ %3, %lpad ], [ %2, %lpad.i ]
  call void @_ZNSaIcED1Ev(ptr noundef nonnull align 1 dereferenceable(1) %ref.tmp6) #25
  resume { ptr, i32 } %.pn

if.end:                                           ; preds = %if.then
  %5 = load ptr, ptr %limit_, align 8
  %6 = load ptr, ptr %base_, align 8
  %sub.ptr.lhs.cast11 = ptrtoint ptr %5 to i64
  %sub.ptr.rhs.cast12 = ptrtoint ptr %6 to i64
  %sub.ptr.sub13 = sub i64 %sub.ptr.lhs.cast11, %sub.ptr.rhs.cast12
  %file_offset_ = getelementptr inbounds i8, ptr %this, i64 128
  %7 = load i64, ptr %file_offset_, align 8
  %add = add i64 %sub.ptr.sub13, %7
  store i64 %add, ptr %file_offset_, align 8
  %map_size_ = getelementptr inbounds i8, ptr %this, i64 88
  tail call void @llvm.memset.p0.i64(ptr noundef nonnull align 8 dereferenceable(32) %base_, i8 0, i64 32, i1 false)
  %8 = load i64, ptr %map_size_, align 8
  %cmp16 = icmp ult i64 %8, 1048576
  br i1 %cmp16, label %if.then17, label %if.end20

if.then17:                                        ; preds = %if.end
  %mul = shl nuw nsw i64 %8, 1
  store i64 %mul, ptr %map_size_, align 8
  br label %if.end20

if.end20:                                         ; preds = %if.end, %if.then17, %entry
  store i8 0, ptr %agg.result, align 8, !alias.scope !113
  %subcode_.i.i.i.i = getelementptr inbounds i8, ptr %agg.result, i64 1
  store i8 0, ptr %subcode_.i.i.i.i, align 1, !alias.scope !113
  %sev_.i.i.i.i = getelementptr inbounds i8, ptr %agg.result, i64 2
  %state_.i.i.i.i = getelementptr inbounds i8, ptr %agg.result, i64 8
  store ptr null, ptr %state_.i.i.i.i, align 8, !alias.scope !113
  store i32 0, ptr %sev_.i.i.i.i, align 2, !alias.scope !113
  br label %return

return:                                           ; preds = %if.end20, %invoke.cont8
  ret void
}